target datalayout = "e-m:e-p270:32:32-p271:32:32-p272:64:64-i64:64-f80:128-n8:16:32:64-S128"
target triple = "x86_64-pc-linux-gnu"

%struct.student = type { [20 x i8], i32, i32, i8, i8, i32 }

@.str = private unnamed_addr constant [3 x i8] c"%d\00", align 1
@.str.1 = private unnamed_addr constant [13 x i8] c"%s%i%i%c%c%i\00", align 1
@.str.2 = private unnamed_addr constant [4 x i8] c"%s\0A\00", align 1
@.str.3 = private unnamed_addr constant [5 x i8] c"%ld\0A\00", align 1

; Function Attrs: noinline nounwind uwtable
define dso_local void @main() #0 {
  %1 = alloca [100 x %struct.student], align 16
  %2 = alloca i32, align 4
  %3 = alloca i32, align 4
  %4 = alloca [100 x i64], align 16
  %5 = alloca i64, align 8
  %6 = alloca i64, align 8
  %7 = bitcast [100 x i64]* %4 to i8*
  call void @llvm.memset.p0i8.i64(i8* align 16 %7, i8 0, i64 800, i1 false)
  store i64 0, i64* %5, align 8
  %8 = call i32 (i8*, ...) @__isoc99_scanf(i8* getelementptr inbounds ([3 x i8], [3 x i8]* @.str, i64 0, i64 0), i32* %3)
  store i32 0, i32* %2, align 4
  br label %9

9:                                                ; preds = %40, %0
  %10 = load i32, i32* %2, align 4
  %11 = load i32, i32* %3, align 4
  %12 = icmp slt i32 %10, %11
  br i1 %12, label %13, label %43

13:                                               ; preds = %9
  %14 = load i32, i32* %2, align 4
  %15 = sext i32 %14 to i64
  %16 = getelementptr inbounds [100 x %struct.student], [100 x %struct.student]* %1, i64 0, i64 %15
  %17 = getelementptr inbounds %struct.student, %struct.student* %16, i32 0, i32 0
  %18 = getelementptr inbounds [20 x i8], [20 x i8]* %17, i64 0, i64 0
  %19 = load i32, i32* %2, align 4
  %20 = sext i32 %19 to i64
  %21 = getelementptr inbounds [100 x %struct.student], [100 x %struct.student]* %1, i64 0, i64 %20
  %22 = getelementptr inbounds %struct.student, %struct.student* %21, i32 0, i32 1
  %23 = load i32, i32* %2, align 4
  %24 = sext i32 %23 to i64
  %25 = getelementptr inbounds [100 x %struct.student], [100 x %struct.student]* %1, i64 0, i64 %24
  %26 = getelementptr inbounds %struct.student, %struct.student* %25, i32 0, i32 2
  %27 = load i32, i32* %2, align 4
  %28 = sext i32 %27 to i64
  %29 = getelementptr inbounds [100 x %struct.student], [100 x %struct.student]* %1, i64 0, i64 %28
  %30 = getelementptr inbounds %struct.student, %struct.student* %29, i32 0, i32 3
  %31 = load i32, i32* %2, align 4
  %32 = sext i32 %31 to i64
  %33 = getelementptr inbounds [100 x %struct.student], [100 x %struct.student]* %1, i64 0, i64 %32
  %34 = getelementptr inbounds %struct.student, %struct.student* %33, i32 0, i32 4
  %35 = load i32, i32* %2, align 4
  %36 = sext i32 %35 to i64
  %37 = getelementptr inbounds [100 x %struct.student], [100 x %struct.student]* %1, i64 0, i64 %36
  %38 = getelementptr inbounds %struct.student, %struct.student* %37, i32 0, i32 5
  %39 = call i32 (i8*, ...) @__isoc99_scanf(i8* getelementptr inbounds ([13 x i8], [13 x i8]* @.str.1, i64 0, i64 0), i8* %18, i32* %22, i32* %26, i8* %30, i8* %34, i32* %38)
  br label %40

40:                                               ; preds = %13
  %41 = load i32, i32* %2, align 4
  %42 = add nsw i32 %41, 1
  store i32 %42, i32* %2, align 4
  br label %9

43:                                               ; preds = %9
  store i32 0, i32* %2, align 4
  br label %44

44:                                               ; preds = %159, %43
  %45 = load i32, i32* %2, align 4
  %46 = load i32, i32* %3, align 4
  %47 = icmp slt i32 %45, %46
  br i1 %47, label %48, label %162

48:                                               ; preds = %44
  %49 = load i32, i32* %2, align 4
  %50 = sext i32 %49 to i64
  %51 = getelementptr inbounds [100 x %struct.student], [100 x %struct.student]* %1, i64 0, i64 %50
  %52 = getelementptr inbounds %struct.student, %struct.student* %51, i32 0, i32 1
  %53 = load i32, i32* %52, align 4
  %54 = icmp sgt i32 %53, 80
  br i1 %54, label %55, label %71

55:                                               ; preds = %48
  %56 = load i32, i32* %2, align 4
  %57 = sext i32 %56 to i64
  %58 = getelementptr inbounds [100 x %struct.student], [100 x %struct.student]* %1, i64 0, i64 %57
  %59 = getelementptr inbounds %struct.student, %struct.student* %58, i32 0, i32 5
  %60 = load i32, i32* %59, align 4
  %61 = icmp sge i32 %60, 1
  br i1 %61, label %62, label %71

62:                                               ; preds = %55
  %63 = load i32, i32* %2, align 4
  %64 = sext i32 %63 to i64
  %65 = getelementptr inbounds [100 x i64], [100 x i64]* %4, i64 0, i64 %64
  %66 = load i64, i64* %65, align 8
  %67 = add nsw i64 %66, 8000
  %68 = load i32, i32* %2, align 4
  %69 = sext i32 %68 to i64
  %70 = getelementptr inbounds [100 x i64], [100 x i64]* %4, i64 0, i64 %69
  store i64 %67, i64* %70, align 8
  br label %71

71:                                               ; preds = %62, %55, %48
  %72 = load i32, i32* %2, align 4
  %73 = sext i32 %72 to i64
  %74 = getelementptr inbounds [100 x %struct.student], [100 x %struct.student]* %1, i64 0, i64 %73
  %75 = getelementptr inbounds %struct.student, %struct.student* %74, i32 0, i32 1
  %76 = load i32, i32* %75, align 4
  %77 = icmp sgt i32 %76, 85
  br i1 %77, label %78, label %94

78:                                               ; preds = %71
  %79 = load i32, i32* %2, align 4
  %80 = sext i32 %79 to i64
  %81 = getelementptr inbounds [100 x %struct.student], [100 x %struct.student]* %1, i64 0, i64 %80
  %82 = getelementptr inbounds %struct.student, %struct.student* %81, i32 0, i32 2
  %83 = load i32, i32* %82, align 4
  %84 = icmp sgt i32 %83, 80
  br i1 %84, label %85, label %94

85:                                               ; preds = %78
  %86 = load i32, i32* %2, align 4
  %87 = sext i32 %86 to i64
  %88 = getelementptr inbounds [100 x i64], [100 x i64]* %4, i64 0, i64 %87
  %89 = load i64, i64* %88, align 8
  %90 = add nsw i64 %89, 4000
  %91 = load i32, i32* %2, align 4
  %92 = sext i32 %91 to i64
  %93 = getelementptr inbounds [100 x i64], [100 x i64]* %4, i64 0, i64 %92
  store i64 %90, i64* %93, align 8
  br label %94

94:                                               ; preds = %85, %78, %71
  %95 = load i32, i32* %2, align 4
  %96 = sext i32 %95 to i64
  %97 = getelementptr inbounds [100 x %struct.student], [100 x %struct.student]* %1, i64 0, i64 %96
  %98 = getelementptr inbounds %struct.student, %struct.student* %97, i32 0, i32 1
  %99 = load i32, i32* %98, align 4
  %100 = icmp sgt i32 %99, 90
  br i1 %100, label %101, label %110

101:                                              ; preds = %94
  %102 = load i32, i32* %2, align 4
  %103 = sext i32 %102 to i64
  %104 = getelementptr inbounds [100 x i64], [100 x i64]* %4, i64 0, i64 %103
  %105 = load i64, i64* %104, align 8
  %106 = add nsw i64 %105, 2000
  %107 = load i32, i32* %2, align 4
  %108 = sext i32 %107 to i64
  %109 = getelementptr inbounds [100 x i64], [100 x i64]* %4, i64 0, i64 %108
  store i64 %106, i64* %109, align 8
  br label %110

110:                                              ; preds = %101, %94
  %111 = load i32, i32* %2, align 4
  %112 = sext i32 %111 to i64
  %113 = getelementptr inbounds [100 x %struct.student], [100 x %struct.student]* %1, i64 0, i64 %112
  %114 = getelementptr inbounds %struct.student, %struct.student* %113, i32 0, i32 1
  %115 = load i32, i32* %114, align 4
  %116 = icmp sgt i32 %115, 85
  br i1 %116, label %117, label %134

117:                                              ; preds = %110
  %118 = load i32, i32* %2, align 4
  %119 = sext i32 %118 to i64
  %120 = getelementptr inbounds [100 x %struct.student], [100 x %struct.student]* %1, i64 0, i64 %119
  %121 = getelementptr inbounds %struct.student, %struct.student* %120, i32 0, i32 4
  %122 = load i8, i8* %121, align 1
  %123 = sext i8 %122 to i32
  %124 = icmp eq i32 %123, 89
  br i1 %124, label %125, label %134

125:                                              ; preds = %117
  %126 = load i32, i32* %2, align 4
  %127 = sext i32 %126 to i64
  %128 = getelementptr inbounds [100 x i64], [100 x i64]* %4, i64 0, i64 %127
  %129 = load i64, i64* %128, align 8
  %130 = add nsw i64 %129, 1000
  %131 = load i32, i32* %2, align 4
  %132 = sext i32 %131 to i64
  %133 = getelementptr inbounds [100 x i64], [100 x i64]* %4, i64 0, i64 %132
  store i64 %130, i64* %133, align 8
  br label %134

134:                                              ; preds = %125, %117, %110
  %135 = load i32, i32* %2, align 4
  %136 = sext i32 %135 to i64
  %137 = getelementptr inbounds [100 x %struct.student], [100 x %struct.student]* %1, i64 0, i64 %136
  %138 = getelementptr inbounds %struct.student, %struct.student* %137, i32 0, i32 2
  %139 = load i32, i32* %138, align 4
  %140 = icmp sgt i32 %139, 80
  br i1 %140, label %141, label %158

141:                                              ; preds = %134
  %142 = load i32, i32* %2, align 4
  %143 = sext i32 %142 to i64
  %144 = getelementptr inbounds [100 x %struct.student], [100 x %struct.student]* %1, i64 0, i64 %143
  %145 = getelementptr inbounds %struct.student, %struct.student* %144, i32 0, i32 3
  %146 = load i8, i8* %145, align 4
  %147 = sext i8 %146 to i32
  %148 = icmp eq i32 %147, 89
  br i1 %148, label %149, label %158

149:                                              ; preds = %141
  %150 = load i32, i32* %2, align 4
  %151 = sext i32 %150 to i64
  %152 = getelementptr inbounds [100 x i64], [100 x i64]* %4, i64 0, i64 %151
  %153 = load i64, i64* %152, align 8
  %154 = add nsw i64 %153, 850
  %155 = load i32, i32* %2, align 4
  %156 = sext i32 %155 to i64
  %157 = getelementptr inbounds [100 x i64], [100 x i64]* %4, i64 0, i64 %156
  store i64 %154, i64* %157, align 8
  br label %158

158:                                              ; preds = %149, %141, %134
  br label %159

159:                                              ; preds = %158
  %160 = load i32, i32* %2, align 4
  %161 = add nsw i32 %160, 1
  store i32 %161, i32* %2, align 4
  br label %44

162:                                              ; preds = %44
  %163 = getelementptr inbounds [100 x i64], [100 x i64]* %4, i64 0, i64 0
  %164 = load i64, i64* %163, align 16
  store i64 %164, i64* %6, align 8
  %165 = getelementptr inbounds [100 x i64], [100 x i64]* %4, i64 0, i64 0
  %166 = load i64, i64* %165, align 16
  store i64 %166, i64* %5, align 8
  store i32 1, i32* %2, align 4
  br label %167

167:                                              ; preds = %190, %162
  %168 = load i32, i32* %2, align 4
  %169 = load i32, i32* %3, align 4
  %170 = icmp slt i32 %168, %169
  br i1 %170, label %171, label %193

171:                                              ; preds = %167
  %172 = load i32, i32* %2, align 4
  %173 = sext i32 %172 to i64
  %174 = getelementptr inbounds [100 x i64], [100 x i64]* %4, i64 0, i64 %173
  %175 = load i64, i64* %174, align 8
  %176 = load i64, i64* %6, align 8
  %177 = icmp sgt i64 %175, %176
  br i1 %177, label %178, label %183

178:                                              ; preds = %171
  %179 = load i32, i32* %2, align 4
  %180 = sext i32 %179 to i64
  %181 = getelementptr inbounds [100 x i64], [100 x i64]* %4, i64 0, i64 %180
  %182 = load i64, i64* %181, align 8
  store i64 %182, i64* %6, align 8
  br label %183

183:                                              ; preds = %178, %171
  %184 = load i64, i64* %5, align 8
  %185 = load i32, i32* %2, align 4
  %186 = sext i32 %185 to i64
  %187 = getelementptr inbounds [100 x i64], [100 x i64]* %4, i64 0, i64 %186
  %188 = load i64, i64* %187, align 8
  %189 = add nsw i64 %184, %188
  store i64 %189, i64* %5, align 8
  br label %190

190:                                              ; preds = %183
  %191 = load i32, i32* %2, align 4
  %192 = add nsw i32 %191, 1
  store i32 %192, i32* %2, align 4
  br label %167

193:                                              ; preds = %167
  store i32 0, i32* %2, align 4
  br label %194

194:                                              ; preds = %213, %193
  %195 = load i32, i32* %2, align 4
  %196 = load i32, i32* %3, align 4
  %197 = icmp slt i32 %195, %196
  br i1 %197, label %198, label %216

198:                                              ; preds = %194
  %199 = load i64, i64* %6, align 8
  %200 = load i32, i32* %2, align 4
  %201 = sext i32 %200 to i64
  %202 = getelementptr inbounds [100 x i64], [100 x i64]* %4, i64 0, i64 %201
  %203 = load i64, i64* %202, align 8
  %204 = icmp eq i64 %199, %203
  br i1 %204, label %205, label %212

205:                                              ; preds = %198
  %206 = load i32, i32* %2, align 4
  %207 = sext i32 %206 to i64
  %208 = getelementptr inbounds [100 x %struct.student], [100 x %struct.student]* %1, i64 0, i64 %207
  %209 = getelementptr inbounds %struct.student, %struct.student* %208, i32 0, i32 0
  %210 = getelementptr inbounds [20 x i8], [20 x i8]* %209, i64 0, i64 0
  %211 = call i32 (i8*, ...) @printf(i8* getelementptr inbounds ([4 x i8], [4 x i8]* @.str.2, i64 0, i64 0), i8* %210)
  br label %216

212:                                              ; preds = %198
  br label %213

213:                                              ; preds = %212
  %214 = load i32, i32* %2, align 4
  %215 = add nsw i32 %214, 1
  store i32 %215, i32* %2, align 4
  br label %194

216:                                              ; preds = %205, %194
  %217 = load i64, i64* %6, align 8
  %218 = call i32 (i8*, ...) @printf(i8* getelementptr inbounds ([5 x i8], [5 x i8]* @.str.3, i64 0, i64 0), i64 %217)
  %219 = load i64, i64* %5, align 8
  %220 = call i32 (i8*, ...) @printf(i8* getelementptr inbounds ([5 x i8], [5 x i8]* @.str.3, i64 0, i64 0), i64 %219)
  ret void
}